target datalayout = "e-m:e-p270:32:32-p271:32:32-p272:64:64-i64:64-i128:128-f80:128-n8:16:32:64-S128"
target triple = "x86_64-pc-linux-gnu"

%struct.SDL_AtomicInt = type { i32 }
%struct.SDL_MouseWheelEvent = type { i32, i32, i64, i32, i32, float, float, i32, float, float, i32, i32 }
%struct.anon = type { ptr, i8, %struct.SDL_AtomicInt, i32, ptr, ptr, ptr }
%struct.SDL_EventEntry = type { %union.SDL_Event, ptr, ptr, ptr }
%union.SDL_Event = type { %struct.SDL_MouseWheelEvent, [72 x i8] }

@SDL_EventQ = internal global { ptr, i8, [3 x i8], %struct.SDL_AtomicInt, i32, [4 x i8], ptr, ptr, ptr } zeroinitializer, align 8

; Function Attrs: nounwind uwtable
define hidden zeroext i1 @SDL_HasEvents_REAL(i32 noundef %0, i32 noundef %1) #0 {
  %3 = alloca i32, align 4
  %4 = alloca i32, align 4
  %5 = alloca i8, align 1
  %6 = alloca ptr, align 8
  %7 = alloca i32, align 4
  %8 = alloca i32, align 4
  store i32 %0, ptr %3, align 4
  store i32 %1, ptr %4, align 4
  call void @llvm.lifetime.start.p0(i64 1, ptr %5) #5
  store i8 0, ptr %5, align 1
  %9 = load ptr, ptr @SDL_EventQ, align 8
  call void @SDL_LockMutex_REAL(ptr noundef %9)
  %10 = load i8, ptr getelementptr inbounds nuw (%struct.anon, ptr @SDL_EventQ, i32 0, i32 1), align 8, !range !3, !noundef !4
  %11 = trunc i8 %10 to i1
  br i1 %11, label %12, label %40

12:                                               ; preds = %2
  call void @llvm.lifetime.start.p0(i64 8, ptr %6) #5
  %13 = load ptr, ptr getelementptr inbounds nuw (%struct.anon, ptr @SDL_EventQ, i32 0, i32 4), align 8
  store ptr %13, ptr %6, align 8
  br label %14

14:                                               ; preds = %34, %12
  %15 = load ptr, ptr %6, align 8
  %16 = icmp ne ptr %15, null
  br i1 %16, label %18, label %17

17:                                               ; preds = %14
  store i32 2, ptr %7, align 4
  br label %38

18:                                               ; preds = %14
  call void @llvm.lifetime.start.p0(i64 4, ptr %8) #5
  %19 = load ptr, ptr %6, align 8
  %20 = getelementptr inbounds nuw %struct.SDL_EventEntry, ptr %19, i32 0, i32 0
  %21 = load i32, ptr %20, align 8
  store i32 %21, ptr %8, align 4
  %22 = load i32, ptr %3, align 4
  %23 = load i32, ptr %8, align 4
  %24 = icmp ule i32 %22, %23
  br i1 %24, label %25, label %30

25:                                               ; preds = %18
  %26 = load i32, ptr %8, align 4
  %27 = load i32, ptr %4, align 4
  %28 = icmp ule i32 %26, %27
  br i1 %28, label %29, label %30

29:                                               ; preds = %25
  store i8 1, ptr %5, align 1
  store i32 2, ptr %7, align 4
  br label %31

30:                                               ; preds = %25, %18
  store i32 0, ptr %7, align 4
  br label %31

31:                                               ; preds = %30, %29
  call void @llvm.lifetime.end.p0(i64 4, ptr %8) #5
  %32 = load i32, ptr %7, align 4
  switch i32 %32, label %38 [
    i32 0, label %33
  ]

33:                                               ; preds = %31
  br label %34

34:                                               ; preds = %33
  %35 = load ptr, ptr %6, align 8
  %36 = getelementptr inbounds nuw %struct.SDL_EventEntry, ptr %35, i32 0, i32 3
  %37 = load ptr, ptr %36, align 8
  store ptr %37, ptr %6, align 8
  br label %14, !llvm.loop !14

38:                                               ; preds = %31, %17
  call void @llvm.lifetime.end.p0(i64 8, ptr %6) #5
  br label %39

39:                                               ; preds = %38
  br label %40

40:                                               ; preds = %39, %2
  %41 = load ptr, ptr @SDL_EventQ, align 8
  call void @SDL_UnlockMutex_REAL(ptr noundef %41)
  %42 = load i8, ptr %5, align 1, !range !3, !noundef !4
  %43 = trunc i8 %42 to i1
  store i32 1, ptr %7, align 4
  call void @llvm.lifetime.end.p0(i64 1, ptr %5) #5
  ret i1 %43
}