; Function Attrs: nounwind uwtable
define hidden noundef zeroext i1 @SDL_HasEvents_REAL(i32 noundef %0, i32 noundef %1) local_unnamed_addr #0 {
  %3 = load ptr, ptr @SDL_EventQ, align 8
  tail call void @SDL_LockMutex_REAL(ptr noundef %3) #8
  %4 = load i8, ptr getelementptr inbounds nuw (i8, ptr @SDL_EventQ, i64 8), align 8, !range !6, !noundef !7
  %5 = trunc nuw i8 %4 to i1
  %.0914 = load ptr, ptr getelementptr inbounds nuw (i8, ptr @SDL_EventQ, i64 24), align 8
  %.not15.not = icmp ne ptr %.0914, null
  %or.cond.not19 = select i1 %5, i1 %.not15.not, i1 false
  br i1 %or.cond.not19, label %.lr.ph, label %.loopexit

6:                                                ; preds = %.lr.ph
  %7 = getelementptr inbounds nuw i8, ptr %.0916, i64 144
  %.09 = load ptr, ptr %7, align 8
  %.not.not = icmp eq ptr %.09, null
  br i1 %.not.not, label %.loopexit, label %.lr.ph, !llvm.loop !14

.lr.ph:                                           ; preds = %2, %6
  %.0916 = phi ptr [ %.09, %6 ], [ %.0914, %2 ]
  %8 = load i32, ptr %.0916, align 8
  %.not11 = icmp ule i32 %0, %8
  %.not12 = icmp ule i32 %8, %1
  %or.cond.not = and i1 %.not11, %.not12
  br i1 %or.cond.not, label %.loopexit, label %6

.loopexit:                                        ; preds = %6, %.lr.ph, %2
  %.0 = phi i1 [ false, %2 ], [ %or.cond.not, %.lr.ph ], [ %or.cond.not, %6 ]
  %9 = load ptr, ptr @SDL_EventQ, align 8
  tail call void @SDL_UnlockMutex_REAL(ptr noundef %9) #8
  ret i1 %.0
}